; Function Attrs: nounwind uwtable
define internal fastcc void @create_object_entry(ptr noundef %0, i32 noundef %1, i32 noundef %2, i32 noundef range(i32 0, 2) %3, i32 noundef range(i32 0, 2) %4, ptr noundef %5, i64 noundef %6) unnamed_addr #0 {
  %8 = tail call ptr @packlist_alloc(ptr noundef nonnull @to_pack, ptr noundef %0) #25
  %9 = getelementptr inbounds nuw i8, ptr %8, i64 64
  store i32 %2, ptr %9, align 8, !tbaa !197
  %10 = icmp sgt i32 %1, 7
  br i1 %10, label %11, label %oe_set_type.exit

11:                                               ; preds = %7
  tail call void (ptr, i32, ptr, ...) @BUG_fl(ptr noundef nonnull @.str.150, i32 noundef 220, ptr noundef nonnull @.str.151) #26
  unreachable

oe_set_type.exit:                                 ; preds = %7
  %12 = icmp sgt i32 %1, -1
  %13 = getelementptr inbounds nuw i8, ptr %8, i64 88
  %14 = load i64, ptr %13, align 8
  %15 = select i1 %12, i64 1073741824, i64 0
  %16 = and i64 %14, -31138512897
  %17 = or disjoint i64 %15, %16
  %18 = and i32 %1, 7
  %19 = zext nneg i32 %18 to i64
  %20 = shl nuw nsw i64 %19, 32
  %21 = or disjoint i64 %17, %20
  store i64 %21, ptr %13, align 8
  %.not = icmp eq i32 %3, 0
  br i1 %.not, label %24, label %22

22:                                               ; preds = %oe_set_type.exit
  %23 = or i64 %21, 274877906944
  store i64 %23, ptr %13, align 8
  br label %27

24:                                               ; preds = %oe_set_type.exit
  %25 = load i32, ptr @nr_result, align 4, !tbaa !30
  %26 = add i32 %25, 1
  store i32 %26, ptr @nr_result, align 4, !tbaa !30
  br label %27

27:                                               ; preds = %24, %22
  %28 = phi i64 [ %21, %24 ], [ %23, %22 ]
  %.not14 = icmp eq ptr %5, null
  br i1 %.not14, label %49, label %29

29:                                               ; preds = %27
  %30 = load ptr, ptr getelementptr inbounds nuw (i8, ptr @to_pack, i64 56), align 8, !tbaa !9
  %.not.i = icmp eq ptr %30, null
  br i1 %.not.i, label %40, label %31

31:                                               ; preds = %29
  %32 = getelementptr inbounds nuw i8, ptr %5, i64 148
  %33 = load i32, ptr %32, align 4, !tbaa !30
  %.not9.i = icmp eq i32 %33, 0
  br i1 %.not9.i, label %39, label %34

34:                                               ; preds = %31
  %35 = and i32 %33, 1023
  %36 = zext nneg i32 %35 to i64
  %37 = and i64 %28, -1024
  %38 = or disjoint i64 %37, %36
  br label %oe_set_in_pack.exit

39:                                               ; preds = %31
  tail call void @oe_map_new_pack(ptr noundef nonnull @to_pack) #25
  br label %40

40:                                               ; preds = %39, %29
  %41 = load ptr, ptr getelementptr inbounds nuw (i8, ptr @to_pack, i64 64), align 8, !tbaa !18
  %42 = load ptr, ptr getelementptr inbounds nuw (i8, ptr @to_pack, i64 8), align 8, !tbaa !19
  %43 = ptrtoint ptr %8 to i64
  %44 = ptrtoint ptr %42 to i64
  %45 = sub i64 %43, %44
  %46 = sdiv exact i64 %45, 12
  %47 = getelementptr inbounds i8, ptr %41, i64 %46
  store ptr %5, ptr %47, align 8, !tbaa !20
  %.pre.pre = load i64, ptr %13, align 8
  br label %oe_set_in_pack.exit

oe_set_in_pack.exit:                              ; preds = %34, %40
  %.pre = phi i64 [ %38, %34 ], [ %.pre.pre, %40 ]
  %48 = getelementptr inbounds nuw i8, ptr %8, i64 56
  store i64 %6, ptr %48, align 8, !tbaa !24
  br label %49

49:                                               ; preds = %oe_set_in_pack.exit, %27
  %50 = phi i64 [ %.pre, %oe_set_in_pack.exit ], [ %28, %27 ]
  %51 = shl nuw i32 %4, 31
  %52 = zext i32 %51 to i64
  %53 = and i64 %50, -2147483649
  %54 = or disjoint i64 %53, %52
  store i64 %54, ptr %13, align 8
  ret void
}